(dp0
S'cookies'
p1
(dp2
sS'version'
p3
S'1.3.10'
p4
sS'storage'
p5
(dp6
S'userName'
p7
NsS'lastInputUserName'
p8
NsS'memberList'
p9
ccopy_reg
_reconstructor
p10
(citchat.storage.templates
ContactList
p11
c__builtin__
list
p12
(lp13
tp14
Rp15
I1
bsS'chatroomList'
p16
g10
(g11
g12
(lp17
tp18
Rp19
I1
bsS'nickName'
p20
NsS'mpList'
p21
g10
(g11
g12
(lp22
tp23
Rp24
I1
bssS'loginInfo'
p25
(dp26
s.